target datalayout = "e-m:e-p270:32:32-p271:32:32-p272:64:64-i64:64-i128:128-f80:128-n8:16:32:64-S128"
target triple = "x86_64-pc-linux-gnu"

@xmlFree = external global ptr, align 8

; Function Attrs: nounwind uwtable
define hidden zeroext i1 @dom_compare_value(ptr noundef %0, ptr noundef %1) #0 {
  %3 = alloca ptr, align 8
  %4 = alloca ptr, align 8
  %5 = alloca i8, align 1
  %6 = alloca ptr, align 8
  %7 = alloca i8, align 1
  store ptr %0, ptr %3, align 8, !tbaa !11
  store ptr %1, ptr %4, align 8, !tbaa !15
  call void @llvm.lifetime.start.p0(i64 1, ptr %5) #11
  call void @llvm.lifetime.start.p0(i64 8, ptr %6) #11
  %8 = load ptr, ptr %3, align 8, !tbaa !11
  %9 = call ptr @php_libxml_attr_value(ptr noundef %8, ptr noundef %5)
  store ptr %9, ptr %6, align 8, !tbaa !15
  call void @llvm.lifetime.start.p0(i64 1, ptr %7) #11
  %10 = load ptr, ptr %6, align 8, !tbaa !15
  %11 = load ptr, ptr %4, align 8, !tbaa !15
  %12 = call i32 @xmlStrEqual(ptr noundef %10, ptr noundef %11)
  %13 = icmp ne i32 %12, 0
  %14 = zext i1 %13 to i8
  store i8 %14, ptr %7, align 1, !tbaa !64
  %15 = load i8, ptr %5, align 1, !tbaa !64, !range !65, !noundef !66
  %16 = trunc i8 %15 to i1
  br i1 %16, label %17, label %20

17:                                               ; preds = %2
  %18 = load ptr, ptr @xmlFree, align 8, !tbaa !90
  %19 = load ptr, ptr %6, align 8, !tbaa !15
  call void %18(ptr noundef %19)
  br label %20

20:                                               ; preds = %17, %2
  %21 = load i8, ptr %7, align 1, !tbaa !64, !range !65, !noundef !66
  %22 = trunc i8 %21 to i1
  call void @llvm.lifetime.end.p0(i64 1, ptr %7) #11
  call void @llvm.lifetime.end.p0(i64 8, ptr %6) #11
  call void @llvm.lifetime.end.p0(i64 1, ptr %5) #11
  ret i1 %22
}