; Function Attrs: nounwind uwtable
define hidden zeroext i1 @dom_compare_value(ptr noundef %0, ptr noundef %1) local_unnamed_addr #0 {
  %3 = alloca i8, align 1
  call void @llvm.lifetime.start.p0(i64 1, ptr nonnull %3) #8
  %4 = call ptr @php_libxml_attr_value(ptr noundef %0, ptr noundef nonnull %3) #8
  %5 = call i32 @xmlStrEqual(ptr noundef %4, ptr noundef %1) #8
  %6 = load i8, ptr %3, align 1, !tbaa !87, !range !88, !noundef !89
  %7 = trunc nuw i8 %6 to i1
  br i1 %7, label %8, label %10

8:                                                ; preds = %2
  %9 = load ptr, ptr @xmlFree, align 8, !tbaa !90
  call void %9(ptr noundef %4) #8
  br label %10

10:                                               ; preds = %8, %2
  %11 = icmp ne i32 %5, 0
  call void @llvm.lifetime.end.p0(i64 1, ptr nonnull %3) #8
  ret i1 %11
}